; Function Attrs: nounwind uwtable
define ptr @l_Lake_Toml_elabExpression(ptr noundef %0, ptr noundef %1, ptr noundef %2, ptr noundef %3, ptr noundef %4) local_unnamed_addr #2 {
  %6 = load ptr, ptr @l_Lake_Toml_elabKeyval___closed__2, align 8, !tbaa !9
  %7 = ptrtoint ptr %0 to i64
  %8 = and i64 %7, 1
  %.not = icmp eq i64 %8, 0
  br i1 %.not, label %9, label %lean_inc.exit47.thread

9:                                                ; preds = %5
  %.val.i = load i32, ptr %0, align 4, !tbaa !4
  %10 = icmp sgt i32 %.val.i, 0
  br i1 %10, label %11, label %13, !prof !11

11:                                               ; preds = %9
  %12 = add nuw i32 %.val.i, 1
  store i32 %12, ptr %0, align 4, !tbaa !4
  br label %lean_inc.exit47

13:                                               ; preds = %9
  %.not.i56 = icmp eq i32 %.val.i, 0
  br i1 %.not.i56, label %lean_inc.exit47, label %14

14:                                               ; preds = %13
  tail call void @lean_inc_ref_cold(ptr noundef nonnull %0) #8
  br label %lean_inc.exit47

lean_inc.exit47:                                  ; preds = %14, %13, %11
  %15 = tail call zeroext i8 @l_Lean_Syntax_isOfKind(ptr noundef nonnull %0, ptr noundef %6) #8
  %16 = icmp eq i8 %15, 0
  br i1 %16, label %19, label %92

lean_inc.exit47.thread:                           ; preds = %5
  %17 = tail call zeroext i8 @l_Lean_Syntax_isOfKind(ptr noundef %0, ptr noundef %6) #8
  %18 = icmp eq i8 %17, 0
  br i1 %18, label %lean_inc.exit46.thread, label %92

19:                                               ; preds = %lean_inc.exit47
  %20 = load ptr, ptr @l_Lake_Toml_elabStdTable___closed__2, align 8, !tbaa !9
  %.val.i57 = load i32, ptr %0, align 4, !tbaa !4
  %21 = icmp sgt i32 %.val.i57, 0
  br i1 %21, label %22, label %24, !prof !11

22:                                               ; preds = %19
  %23 = add nuw i32 %.val.i57, 1
  store i32 %23, ptr %0, align 4, !tbaa !4
  br label %lean_inc.exit46

24:                                               ; preds = %19
  %.not.i58 = icmp eq i32 %.val.i57, 0
  br i1 %.not.i58, label %lean_inc.exit46, label %25

25:                                               ; preds = %24
  tail call void @lean_inc_ref_cold(ptr noundef nonnull %0) #8
  br label %lean_inc.exit46

lean_inc.exit46:                                  ; preds = %25, %24, %22
  %26 = tail call zeroext i8 @l_Lean_Syntax_isOfKind(ptr noundef nonnull %0, ptr noundef %20) #8
  %27 = icmp eq i8 %26, 0
  br i1 %27, label %32, label %81

lean_inc.exit46.thread:                           ; preds = %lean_inc.exit47.thread
  %28 = load ptr, ptr @l_Lake_Toml_elabStdTable___closed__2, align 8, !tbaa !9
  %29 = tail call zeroext i8 @l_Lean_Syntax_isOfKind(ptr noundef %0, ptr noundef %28) #8
  %30 = icmp eq i8 %29, 0
  br i1 %30, label %.thread67, label %81

.thread67:                                        ; preds = %lean_inc.exit46.thread
  %31 = load ptr, ptr @l_Lake_Toml_elabArrayTable___closed__2, align 8, !tbaa !9
  br label %lean_inc.exit

32:                                               ; preds = %lean_inc.exit46
  %33 = load ptr, ptr @l_Lake_Toml_elabArrayTable___closed__2, align 8, !tbaa !9
  %.val.i60 = load i32, ptr %0, align 4, !tbaa !4
  %34 = icmp sgt i32 %.val.i60, 0
  br i1 %34, label %35, label %37, !prof !11

35:                                               ; preds = %32
  %36 = add nuw i32 %.val.i60, 1
  store i32 %36, ptr %0, align 4, !tbaa !4
  br label %lean_inc.exit

37:                                               ; preds = %32
  %.not.i61 = icmp eq i32 %.val.i60, 0
  br i1 %.not.i61, label %lean_inc.exit, label %38

38:                                               ; preds = %37
  tail call void @lean_inc_ref_cold(ptr noundef nonnull %0) #8
  br label %lean_inc.exit

lean_inc.exit:                                    ; preds = %.thread67, %38, %37, %35
  %39 = phi ptr [ %31, %.thread67 ], [ %33, %38 ], [ %33, %37 ], [ %33, %35 ]
  %40 = tail call zeroext i8 @l_Lean_Syntax_isOfKind(ptr noundef %0, ptr noundef %39) #8
  %41 = icmp eq i8 %40, 0
  br i1 %41, label %42, label %70

42:                                               ; preds = %lean_inc.exit
  %43 = load ptr, ptr @l_Lake_Toml_elabExpression___closed__2, align 8, !tbaa !9
  %44 = tail call ptr @l_Lean_throwErrorAt___at_Lake_Toml_elabKeyval___spec__1(ptr noundef %0, ptr noundef %43, ptr poison, ptr noundef %2, ptr noundef %3, ptr noundef %4)
  %45 = ptrtoint ptr %3 to i64
  %46 = and i64 %45, 1
  %.not65 = icmp eq i64 %46, 0
  br i1 %.not65, label %47, label %lean_dec.exit45

47:                                               ; preds = %42
  %48 = load i32, ptr %3, align 4, !tbaa !4
  %49 = icmp sgt i32 %48, 1
  br i1 %49, label %50, label %52, !prof !11

50:                                               ; preds = %47
  %51 = add nsw i32 %48, -1
  store i32 %51, ptr %3, align 4, !tbaa !4
  br label %lean_dec.exit45

52:                                               ; preds = %47
  %.not.i = icmp eq i32 %48, 0
  br i1 %.not.i, label %lean_dec.exit45, label %53

53:                                               ; preds = %52
  tail call void @lean_dec_ref_cold(ptr noundef nonnull %3) #8
  br label %lean_dec.exit45

lean_dec.exit45:                                  ; preds = %53, %52, %50, %42
  %54 = ptrtoint ptr %1 to i64
  %55 = and i64 %54, 1
  %.not66 = icmp eq i64 %55, 0
  br i1 %.not66, label %56, label %lean_dec.exit44

56:                                               ; preds = %lean_dec.exit45
  %57 = load i32, ptr %1, align 4, !tbaa !4
  %58 = icmp sgt i32 %57, 1
  br i1 %58, label %59, label %61, !prof !11

59:                                               ; preds = %56
  %60 = add nsw i32 %57, -1
  store i32 %60, ptr %1, align 4, !tbaa !4
  br label %lean_dec.exit44

61:                                               ; preds = %56
  %.not.i48 = icmp eq i32 %57, 0
  br i1 %.not.i48, label %lean_dec.exit44, label %62

62:                                               ; preds = %61
  tail call void @lean_dec_ref_cold(ptr noundef nonnull %1) #8
  br label %lean_dec.exit44

lean_dec.exit44:                                  ; preds = %62, %61, %59, %lean_dec.exit45
  br i1 %.not, label %63, label %lean_dec.exit43

63:                                               ; preds = %lean_dec.exit44
  %64 = load i32, ptr %0, align 4, !tbaa !4
  %65 = icmp sgt i32 %64, 1
  br i1 %65, label %66, label %68, !prof !11

66:                                               ; preds = %63
  %67 = add nsw i32 %64, -1
  store i32 %67, ptr %0, align 4, !tbaa !4
  br label %lean_dec.exit43

68:                                               ; preds = %63
  %.not.i50 = icmp eq i32 %64, 0
  br i1 %.not.i50, label %lean_dec.exit43, label %69

69:                                               ; preds = %68
  tail call void @lean_dec_ref_cold(ptr noundef nonnull %0) #8
  br label %lean_dec.exit43

70:                                               ; preds = %lean_inc.exit
  %71 = tail call ptr @l_Lake_Toml_elabArrayTable(ptr noundef %0, ptr noundef %1, ptr noundef %2, ptr noundef %3, ptr noundef %4)
  %72 = ptrtoint ptr %3 to i64
  %73 = and i64 %72, 1
  %.not64 = icmp eq i64 %73, 0
  br i1 %.not64, label %74, label %lean_dec.exit43

74:                                               ; preds = %70
  %75 = load i32, ptr %3, align 4, !tbaa !4
  %76 = icmp sgt i32 %75, 1
  br i1 %76, label %77, label %79, !prof !11

77:                                               ; preds = %74
  %78 = add nsw i32 %75, -1
  store i32 %78, ptr %3, align 4, !tbaa !4
  br label %lean_dec.exit43

79:                                               ; preds = %74
  %.not.i52 = icmp eq i32 %75, 0
  br i1 %.not.i52, label %lean_dec.exit43, label %80

80:                                               ; preds = %79
  tail call void @lean_dec_ref_cold(ptr noundef nonnull %3) #8
  br label %lean_dec.exit43

81:                                               ; preds = %lean_inc.exit46.thread, %lean_inc.exit46
  %82 = tail call ptr @l_Lake_Toml_elabStdTable(ptr noundef %0, ptr noundef %1, ptr noundef %2, ptr noundef %3, ptr noundef %4)
  %83 = ptrtoint ptr %3 to i64
  %84 = and i64 %83, 1
  %.not63 = icmp eq i64 %84, 0
  br i1 %.not63, label %85, label %lean_dec.exit43

85:                                               ; preds = %81
  %86 = load i32, ptr %3, align 4, !tbaa !4
  %87 = icmp sgt i32 %86, 1
  br i1 %87, label %88, label %90, !prof !11

88:                                               ; preds = %85
  %89 = add nsw i32 %86, -1
  store i32 %89, ptr %3, align 4, !tbaa !4
  br label %lean_dec.exit43

90:                                               ; preds = %85
  %.not.i54 = icmp eq i32 %86, 0
  br i1 %.not.i54, label %lean_dec.exit43, label %91

91:                                               ; preds = %90
  tail call void @lean_dec_ref_cold(ptr noundef nonnull %3) #8
  br label %lean_dec.exit43

92:                                               ; preds = %lean_inc.exit47.thread, %lean_inc.exit47
  %93 = tail call ptr @l_Lake_Toml_elabKeyval(ptr noundef %0, ptr noundef %1, ptr noundef %2, ptr noundef %3, ptr noundef %4)
  br label %lean_dec.exit43

lean_dec.exit43:                                  ; preds = %81, %88, %90, %91, %70, %77, %79, %80, %lean_dec.exit44, %66, %68, %69, %92
  %.2 = phi ptr [ %93, %92 ], [ %44, %69 ], [ %44, %68 ], [ %44, %66 ], [ %44, %lean_dec.exit44 ], [ %71, %80 ], [ %71, %79 ], [ %71, %77 ], [ %71, %70 ], [ %82, %91 ], [ %82, %90 ], [ %82, %88 ], [ %82, %81 ]
  ret ptr %.2
}